; Function Attrs: mustprogress nofree norecurse nosync nounwind willreturn memory(read, argmem: readwrite, inaccessiblemem: none) uwtable
define void @_ZN5draco21MeshSequentialEncoder28ComputeNumberOfEncodedPointsEv(ptr noundef nonnull align 8 captures(none) dereferenceable(128) initializes((104, 112)) %0) unnamed_addr #9 align 2 {
  %2 = getelementptr inbounds nuw i8, ptr %0, i64 112
  %3 = load ptr, ptr %2, align 8, !tbaa !6
  %4 = getelementptr inbounds nuw i8, ptr %3, i64 160
  %5 = load i32, ptr %4, align 8, !tbaa !31
  %6 = zext i32 %5 to i64
  %7 = getelementptr inbounds nuw i8, ptr %0, i64 104
  store i64 %6, ptr %7, align 8, !tbaa !111
  ret void
}